target datalayout = "e-m:e-p270:32:32-p271:32:32-p272:64:64-i64:64-i128:128-f80:128-n8:16:32:64-S128"
target triple = "x86_64-pc-linux-gnu"

; Function Attrs: nounwind uwtable
define internal i32 @get_ipv4_dot(ptr noundef %0) #0 {
  %2 = alloca i32, align 4
  %3 = alloca ptr, align 8
  store ptr %0, ptr %3, align 8, !tbaa !71
  %4 = load ptr, ptr %3, align 8, !tbaa !71
  %5 = load ptr, ptr %4, align 8, !tbaa !3
  %6 = load i8, ptr %5, align 1, !tbaa !27
  %7 = sext i8 %6 to i32
  %8 = icmp ne i32 %7, 46
  br i1 %8, label %9, label %10

9:                                                ; preds = %1
  store i32 0, ptr %2, align 4
  br label %14

10:                                               ; preds = %1
  %11 = load ptr, ptr %3, align 8, !tbaa !71
  %12 = load ptr, ptr %11, align 8, !tbaa !3
  %13 = getelementptr inbounds nuw i8, ptr %12, i32 1
  store ptr %13, ptr %11, align 8, !tbaa !3
  store i32 1, ptr %2, align 4
  br label %14

14:                                               ; preds = %10, %9
  %15 = load i32, ptr %2, align 4
  ret i32 %15
}

; Function Attrs: nounwind uwtable
define internal i32 @get_ipv4_component(ptr noundef %0, ptr noundef %1) #0 {
  %3 = alloca i32, align 4
  %4 = alloca ptr, align 8
  %5 = alloca ptr, align 8
  %6 = alloca i32, align 4
  %7 = alloca i32, align 4
  store ptr %0, ptr %4, align 8, !tbaa !3
  store ptr %1, ptr %5, align 8, !tbaa !71
  call void @llvm.lifetime.start.p0(i64 4, ptr %6) #8
  store i32 0, ptr %6, align 4, !tbaa !15
  br label %8

8:                                                ; preds = %51, %2
  %9 = load ptr, ptr %5, align 8, !tbaa !71
  %10 = load ptr, ptr %9, align 8, !tbaa !3
  %11 = load i8, ptr %10, align 1, !tbaa !27
  %12 = sext i8 %11 to i32
  %13 = call i32 @ossl_isdigit(i32 noundef %12)
  %14 = icmp ne i32 %13, 0
  br i1 %14, label %16, label %15

15:                                               ; preds = %8
  store i32 0, ptr %3, align 4
  store i32 1, ptr %7, align 4
  br label %52

16:                                               ; preds = %8
  %17 = load i32, ptr %6, align 4, !tbaa !15
  %18 = mul i32 %17, 10
  %19 = load ptr, ptr %5, align 8, !tbaa !71
  %20 = load ptr, ptr %19, align 8, !tbaa !3
  %21 = load i8, ptr %20, align 1, !tbaa !27
  %22 = sext i8 %21 to i32
  %23 = sub nsw i32 %22, 48
  %24 = add i32 %18, %23
  store i32 %24, ptr %6, align 4, !tbaa !15
  %25 = load i32, ptr %6, align 4, !tbaa !15
  %26 = icmp ugt i32 %25, 255
  br i1 %26, label %27, label %28

27:                                               ; preds = %16
  store i32 0, ptr %3, align 4
  store i32 1, ptr %7, align 4
  br label %52

28:                                               ; preds = %16
  %29 = load ptr, ptr %5, align 8, !tbaa !71
  %30 = load ptr, ptr %29, align 8, !tbaa !3
  %31 = getelementptr inbounds nuw i8, ptr %30, i32 1
  store ptr %31, ptr %29, align 8, !tbaa !3
  %32 = load ptr, ptr %5, align 8, !tbaa !71
  %33 = load ptr, ptr %32, align 8, !tbaa !3
  %34 = load i8, ptr %33, align 1, !tbaa !27
  %35 = sext i8 %34 to i32
  %36 = icmp eq i32 %35, 46
  br i1 %36, label %43, label %37

37:                                               ; preds = %28
  %38 = load ptr, ptr %5, align 8, !tbaa !71
  %39 = load ptr, ptr %38, align 8, !tbaa !3
  %40 = load i8, ptr %39, align 1, !tbaa !27
  %41 = sext i8 %40 to i32
  %42 = icmp eq i32 %41, 0
  br i1 %42, label %43, label %47

43:                                               ; preds = %37, %28
  %44 = load i32, ptr %6, align 4, !tbaa !15
  %45 = trunc i32 %44 to i8
  %46 = load ptr, ptr %4, align 8, !tbaa !3
  store i8 %45, ptr %46, align 1, !tbaa !27
  store i32 1, ptr %3, align 4
  store i32 1, ptr %7, align 4
  br label %52

47:                                               ; preds = %37
  %48 = load i32, ptr %6, align 4, !tbaa !15
  %49 = icmp eq i32 %48, 0
  br i1 %49, label %50, label %51

50:                                               ; preds = %47
  store i32 0, ptr %3, align 4
  store i32 1, ptr %7, align 4
  br label %52

51:                                               ; preds = %47
  br label %8

52:                                               ; preds = %50, %43, %27, %15
  call void @llvm.lifetime.end.p0(i64 4, ptr %6) #8
  %53 = load i32, ptr %3, align 4
  ret i32 %53
}

; Function Attrs: nounwind uwtable
define internal i32 @ipv4_from_asc(ptr noundef %0, ptr noundef %1) #0 {
  %3 = alloca i32, align 4
  %4 = alloca ptr, align 8
  %5 = alloca ptr, align 8
  store ptr %0, ptr %4, align 8, !tbaa !3
  store ptr %1, ptr %5, align 8, !tbaa !3
  %6 = load ptr, ptr %4, align 8, !tbaa !3
  %7 = getelementptr inbounds i8, ptr %6, i64 0
  %8 = call i32 @get_ipv4_component(ptr noundef %7, ptr noundef %5)
  %9 = icmp ne i32 %8, 0
  br i1 %9, label %10, label %39

10:                                               ; preds = %2
  %11 = call i32 @get_ipv4_dot(ptr noundef %5)
  %12 = icmp ne i32 %11, 0
  br i1 %12, label %13, label %39

13:                                               ; preds = %10
  %14 = load ptr, ptr %4, align 8, !tbaa !3
  %15 = getelementptr inbounds i8, ptr %14, i64 1
  %16 = call i32 @get_ipv4_component(ptr noundef %15, ptr noundef %5)
  %17 = icmp ne i32 %16, 0
  br i1 %17, label %18, label %39

18:                                               ; preds = %13
  %19 = call i32 @get_ipv4_dot(ptr noundef %5)
  %20 = icmp ne i32 %19, 0
  br i1 %20, label %21, label %39

21:                                               ; preds = %18
  %22 = load ptr, ptr %4, align 8, !tbaa !3
  %23 = getelementptr inbounds i8, ptr %22, i64 2
  %24 = call i32 @get_ipv4_component(ptr noundef %23, ptr noundef %5)
  %25 = icmp ne i32 %24, 0
  br i1 %25, label %26, label %39

26:                                               ; preds = %21
  %27 = call i32 @get_ipv4_dot(ptr noundef %5)
  %28 = icmp ne i32 %27, 0
  br i1 %28, label %29, label %39

29:                                               ; preds = %26
  %30 = load ptr, ptr %4, align 8, !tbaa !3
  %31 = getelementptr inbounds i8, ptr %30, i64 3
  %32 = call i32 @get_ipv4_component(ptr noundef %31, ptr noundef %5)
  %33 = icmp ne i32 %32, 0
  br i1 %33, label %34, label %39

34:                                               ; preds = %29
  %35 = load ptr, ptr %5, align 8, !tbaa !3
  %36 = load i8, ptr %35, align 1, !tbaa !27
  %37 = sext i8 %36 to i32
  %38 = icmp ne i32 %37, 0
  br i1 %38, label %39, label %40

39:                                               ; preds = %34, %29, %26, %21, %18, %13, %10, %2
  store i32 0, ptr %3, align 4
  br label %41

40:                                               ; preds = %34
  store i32 1, ptr %3, align 4
  br label %41

41:                                               ; preds = %40, %39
  %42 = load i32, ptr %3, align 4
  ret i32 %42
}