; Function Attrs: nounwind uwtable
define internal fastcc range(i32 0, 2) i32 @ipv4_from_asc(ptr noundef writeonly captures(none) %0, ptr noundef readonly captures(none) %1) unnamed_addr #0 {
  %.pre13.i = load i8, ptr %1, align 1, !tbaa !13
  br label %3

3:                                                ; preds = %17, %2
  %.044 = phi ptr [ %1, %2 ], [ %15, %17 ]
  %4 = phi i8 [ %.pre13.i, %2 ], [ %16, %17 ]
  %.0.i = phi i32 [ 0, %2 ], [ %12, %17 ]
  %5 = sext i8 %4 to i32
  %6 = tail call i32 @ossl_isdigit(i32 noundef %5) #12
  %.not.i = icmp eq i32 %6, 0
  br i1 %.not.i, label %get_ipv4_component.exit.thread, label %7

7:                                                ; preds = %3
  %8 = mul nuw nsw i32 %.0.i, 10
  %9 = load i8, ptr %.044, align 1, !tbaa !13
  %10 = sext i8 %9 to i32
  %11 = add nsw i32 %8, -48
  %12 = add nsw i32 %11, %10
  %13 = icmp ugt i32 %12, 255
  br i1 %13, label %get_ipv4_component.exit.thread, label %14

14:                                               ; preds = %7
  %15 = getelementptr inbounds nuw i8, ptr %.044, i64 1
  %16 = load i8, ptr %15, align 1, !tbaa !13
  switch i8 %16, label %17 [
    i8 46, label %19
    i8 0, label %19
  ]

17:                                               ; preds = %14
  %18 = icmp eq i32 %12, 0
  br i1 %18, label %get_ipv4_component.exit.thread, label %3

19:                                               ; preds = %14, %14
  %20 = trunc nuw i32 %12 to i8
  store i8 %20, ptr %0, align 1, !tbaa !13
  %21 = load i8, ptr %15, align 1, !tbaa !13
  %.not.i11 = icmp eq i8 %21, 46
  br i1 %.not.i11, label %22, label %get_ipv4_component.exit.thread

22:                                               ; preds = %19
  %23 = getelementptr inbounds nuw i8, ptr %.044, i64 2
  %24 = getelementptr inbounds nuw i8, ptr %0, i64 1
  %.pre13.i14 = load i8, ptr %23, align 1, !tbaa !13
  br label %25

25:                                               ; preds = %39, %22
  %.3 = phi ptr [ %23, %22 ], [ %37, %39 ]
  %26 = phi i8 [ %.pre13.i14, %22 ], [ %38, %39 ]
  %.0.i15 = phi i32 [ 0, %22 ], [ %34, %39 ]
  %27 = sext i8 %26 to i32
  %28 = tail call i32 @ossl_isdigit(i32 noundef %27) #12
  %.not.i16 = icmp eq i32 %28, 0
  br i1 %.not.i16, label %get_ipv4_component.exit.thread, label %29

29:                                               ; preds = %25
  %30 = mul nuw nsw i32 %.0.i15, 10
  %31 = load i8, ptr %.3, align 1, !tbaa !13
  %32 = sext i8 %31 to i32
  %33 = add nsw i32 %30, -48
  %34 = add nsw i32 %33, %32
  %35 = icmp ugt i32 %34, 255
  br i1 %35, label %get_ipv4_component.exit.thread, label %36

36:                                               ; preds = %29
  %37 = getelementptr inbounds nuw i8, ptr %.3, i64 1
  %38 = load i8, ptr %37, align 1, !tbaa !13
  switch i8 %38, label %39 [
    i8 46, label %41
    i8 0, label %41
  ]

39:                                               ; preds = %36
  %40 = icmp eq i32 %34, 0
  br i1 %40, label %get_ipv4_component.exit.thread, label %25

41:                                               ; preds = %36, %36
  %42 = trunc nuw i32 %34 to i8
  store i8 %42, ptr %24, align 1, !tbaa !13
  %43 = load i8, ptr %37, align 1, !tbaa !13
  %.not.i19 = icmp eq i8 %43, 46
  br i1 %.not.i19, label %44, label %get_ipv4_component.exit.thread

44:                                               ; preds = %41
  %45 = getelementptr inbounds nuw i8, ptr %.3, i64 2
  %46 = getelementptr inbounds nuw i8, ptr %0, i64 2
  %.pre13.i23 = load i8, ptr %45, align 1, !tbaa !13
  br label %47

47:                                               ; preds = %61, %44
  %.6 = phi ptr [ %45, %44 ], [ %59, %61 ]
  %48 = phi i8 [ %.pre13.i23, %44 ], [ %60, %61 ]
  %.0.i24 = phi i32 [ 0, %44 ], [ %56, %61 ]
  %49 = sext i8 %48 to i32
  %50 = tail call i32 @ossl_isdigit(i32 noundef %49) #12
  %.not.i25 = icmp eq i32 %50, 0
  br i1 %.not.i25, label %get_ipv4_component.exit.thread, label %51

51:                                               ; preds = %47
  %52 = mul nuw nsw i32 %.0.i24, 10
  %53 = load i8, ptr %.6, align 1, !tbaa !13
  %54 = sext i8 %53 to i32
  %55 = add nsw i32 %52, -48
  %56 = add nsw i32 %55, %54
  %57 = icmp ugt i32 %56, 255
  br i1 %57, label %get_ipv4_component.exit.thread, label %58

58:                                               ; preds = %51
  %59 = getelementptr inbounds nuw i8, ptr %.6, i64 1
  %60 = load i8, ptr %59, align 1, !tbaa !13
  switch i8 %60, label %61 [
    i8 46, label %63
    i8 0, label %63
  ]

61:                                               ; preds = %58
  %62 = icmp eq i32 %56, 0
  br i1 %62, label %get_ipv4_component.exit.thread, label %47

63:                                               ; preds = %58, %58
  %64 = trunc nuw i32 %56 to i8
  store i8 %64, ptr %46, align 1, !tbaa !13
  %65 = load i8, ptr %59, align 1, !tbaa !13
  %.not.i28 = icmp eq i8 %65, 46
  br i1 %.not.i28, label %66, label %get_ipv4_component.exit.thread

66:                                               ; preds = %63
  %67 = getelementptr inbounds nuw i8, ptr %.6, i64 2
  %68 = getelementptr inbounds nuw i8, ptr %0, i64 3
  %.pre13.i32 = load i8, ptr %67, align 1, !tbaa !13
  br label %69

69:                                               ; preds = %83, %66
  %.9 = phi ptr [ %67, %66 ], [ %81, %83 ]
  %70 = phi i8 [ %.pre13.i32, %66 ], [ %82, %83 ]
  %.0.i33 = phi i32 [ 0, %66 ], [ %78, %83 ]
  %71 = sext i8 %70 to i32
  %72 = tail call i32 @ossl_isdigit(i32 noundef %71) #12
  %.not.i34 = icmp eq i32 %72, 0
  br i1 %.not.i34, label %get_ipv4_component.exit.thread, label %73

73:                                               ; preds = %69
  %74 = mul nuw nsw i32 %.0.i33, 10
  %75 = load i8, ptr %.9, align 1, !tbaa !13
  %76 = sext i8 %75 to i32
  %77 = add nsw i32 %74, -48
  %78 = add nsw i32 %77, %76
  %79 = icmp ugt i32 %78, 255
  br i1 %79, label %get_ipv4_component.exit.thread, label %80

80:                                               ; preds = %73
  %81 = getelementptr inbounds nuw i8, ptr %.9, i64 1
  %82 = load i8, ptr %81, align 1, !tbaa !13
  switch i8 %82, label %83 [
    i8 46, label %85
    i8 0, label %85
  ]

83:                                               ; preds = %80
  %84 = icmp eq i32 %78, 0
  br i1 %84, label %get_ipv4_component.exit.thread, label %69

85:                                               ; preds = %80, %80
  %86 = trunc nuw i32 %78 to i8
  store i8 %86, ptr %68, align 1, !tbaa !13
  %87 = load i8, ptr %81, align 1, !tbaa !13
  %.not10 = icmp eq i8 %87, 0
  %spec.select = zext i1 %.not10 to i32
  br label %get_ipv4_component.exit.thread

get_ipv4_component.exit.thread:                   ; preds = %17, %7, %3, %39, %29, %25, %61, %51, %47, %83, %73, %69, %63, %41, %19, %85
  %.0 = phi i32 [ %spec.select, %85 ], [ 0, %19 ], [ 0, %41 ], [ 0, %63 ], [ 0, %69 ], [ 0, %73 ], [ 0, %83 ], [ 0, %47 ], [ 0, %51 ], [ 0, %61 ], [ 0, %25 ], [ 0, %29 ], [ 0, %39 ], [ 0, %3 ], [ 0, %7 ], [ 0, %17 ]
  ret i32 %.0
}